target datalayout = "e-m:e-p270:32:32-p271:32:32-p272:64:64-i64:64-i128:128-f80:128-n8:16:32:64-S128"
target triple = "x86_64-pc-linux-gnu"

%"struct.OpenImageIO::v3_1_0::tostring_formatting" = type <{ ptr, ptr, ptr, ptr, ptr, ptr, ptr, ptr, ptr, ptr, i32, [4 x i8], ptr, ptr, ptr, i8, [7 x i8] }>

@.str.10 = private unnamed_addr constant [1 x i8] zeroinitializer, align 1

; Function Attrs: mustprogress nounwind uwtable
define void @_ZN11OpenImageIO6v3_1_019tostring_formattingC2EPKcS3_S3_S3_S3_S3_S3_S3_S3_S3_iS3_(ptr noundef nonnull align 8 dereferenceable(113) %0, ptr noundef %1, ptr noundef %2, ptr noundef %3, ptr noundef %4, ptr noundef %5, ptr noundef %6, ptr noundef %7, ptr noundef %8, ptr noundef %9, ptr noundef %10, i32 noundef %11, ptr noundef %12) unnamed_addr #7 align 2 {
  %14 = alloca ptr, align 8
  %15 = alloca ptr, align 8
  %16 = alloca ptr, align 8
  %17 = alloca ptr, align 8
  %18 = alloca ptr, align 8
  %19 = alloca ptr, align 8
  %20 = alloca ptr, align 8
  %21 = alloca ptr, align 8
  %22 = alloca ptr, align 8
  %23 = alloca ptr, align 8
  %24 = alloca ptr, align 8
  %25 = alloca i32, align 4
  %26 = alloca ptr, align 8
  store ptr %0, ptr %14, align 8, !tbaa !56
  store ptr %1, ptr %15, align 8, !tbaa !22
  store ptr %2, ptr %16, align 8, !tbaa !22
  store ptr %3, ptr %17, align 8, !tbaa !22
  store ptr %4, ptr %18, align 8, !tbaa !22
  store ptr %5, ptr %19, align 8, !tbaa !22
  store ptr %6, ptr %20, align 8, !tbaa !22
  store ptr %7, ptr %21, align 8, !tbaa !22
  store ptr %8, ptr %22, align 8, !tbaa !22
  store ptr %9, ptr %23, align 8, !tbaa !22
  store ptr %10, ptr %24, align 8, !tbaa !22
  store i32 %11, ptr %25, align 4, !tbaa !21
  store ptr %12, ptr %26, align 8, !tbaa !22
  %27 = load ptr, ptr %14, align 8
  %28 = getelementptr inbounds nuw %"struct.OpenImageIO::v3_1_0::tostring_formatting", ptr %27, i32 0, i32 0
  %29 = load ptr, ptr %15, align 8, !tbaa !22
  store ptr %29, ptr %28, align 8, !tbaa !58
  %30 = getelementptr inbounds nuw %"struct.OpenImageIO::v3_1_0::tostring_formatting", ptr %27, i32 0, i32 1
  %31 = load ptr, ptr %16, align 8, !tbaa !22
  store ptr %31, ptr %30, align 8, !tbaa !60
  %32 = getelementptr inbounds nuw %"struct.OpenImageIO::v3_1_0::tostring_formatting", ptr %27, i32 0, i32 2
  %33 = load ptr, ptr %17, align 8, !tbaa !22
  store ptr %33, ptr %32, align 8, !tbaa !61
  %34 = getelementptr inbounds nuw %"struct.OpenImageIO::v3_1_0::tostring_formatting", ptr %27, i32 0, i32 3
  %35 = load ptr, ptr %18, align 8, !tbaa !22
  store ptr %35, ptr %34, align 8, !tbaa !62
  %36 = getelementptr inbounds nuw %"struct.OpenImageIO::v3_1_0::tostring_formatting", ptr %27, i32 0, i32 4
  %37 = load ptr, ptr %19, align 8, !tbaa !22
  store ptr %37, ptr %36, align 8, !tbaa !63
  %38 = getelementptr inbounds nuw %"struct.OpenImageIO::v3_1_0::tostring_formatting", ptr %27, i32 0, i32 5
  %39 = load ptr, ptr %20, align 8, !tbaa !22
  store ptr %39, ptr %38, align 8, !tbaa !64
  %40 = getelementptr inbounds nuw %"struct.OpenImageIO::v3_1_0::tostring_formatting", ptr %27, i32 0, i32 6
  %41 = load ptr, ptr %21, align 8, !tbaa !22
  store ptr %41, ptr %40, align 8, !tbaa !65
  %42 = getelementptr inbounds nuw %"struct.OpenImageIO::v3_1_0::tostring_formatting", ptr %27, i32 0, i32 7
  %43 = load ptr, ptr %22, align 8, !tbaa !22
  store ptr %43, ptr %42, align 8, !tbaa !66
  %44 = getelementptr inbounds nuw %"struct.OpenImageIO::v3_1_0::tostring_formatting", ptr %27, i32 0, i32 8
  %45 = load ptr, ptr %23, align 8, !tbaa !22
  store ptr %45, ptr %44, align 8, !tbaa !67
  %46 = getelementptr inbounds nuw %"struct.OpenImageIO::v3_1_0::tostring_formatting", ptr %27, i32 0, i32 9
  %47 = load ptr, ptr %24, align 8, !tbaa !22
  store ptr %47, ptr %46, align 8, !tbaa !68
  %48 = getelementptr inbounds nuw %"struct.OpenImageIO::v3_1_0::tostring_formatting", ptr %27, i32 0, i32 10
  %49 = load i32, ptr %25, align 4, !tbaa !21
  store i32 %49, ptr %48, align 8, !tbaa !69
  %50 = getelementptr inbounds nuw %"struct.OpenImageIO::v3_1_0::tostring_formatting", ptr %27, i32 0, i32 12
  %51 = load ptr, ptr %26, align 8, !tbaa !22
  store ptr %51, ptr %50, align 8, !tbaa !70
  %52 = getelementptr inbounds nuw %"struct.OpenImageIO::v3_1_0::tostring_formatting", ptr %27, i32 0, i32 13
  store ptr @.str.10, ptr %52, align 8, !tbaa !71
  %53 = getelementptr inbounds nuw %"struct.OpenImageIO::v3_1_0::tostring_formatting", ptr %27, i32 0, i32 14
  store ptr @.str.10, ptr %53, align 8, !tbaa !72
  %54 = getelementptr inbounds nuw %"struct.OpenImageIO::v3_1_0::tostring_formatting", ptr %27, i32 0, i32 15
  store i8 1, ptr %54, align 8, !tbaa !73
  ret void
}

; Function Attrs: mustprogress nounwind uwtable
define void @_ZN11OpenImageIO6v3_1_019tostring_formattingC2ENS1_8NotationEPKcS4_S4_S4_S4_S4_S4_S4_S4_S4_S4_i(ptr noundef nonnull align 8 dereferenceable(113) %0, i32 noundef %1, ptr noundef %2, ptr noundef %3, ptr noundef %4, ptr noundef %5, ptr noundef %6, ptr noundef %7, ptr noundef %8, ptr noundef %9, ptr noundef %10, ptr noundef %11, ptr noundef %12, i32 noundef %13) unnamed_addr #7 align 2 {
  %15 = alloca ptr, align 8
  %16 = alloca i32, align 4
  %17 = alloca ptr, align 8
  %18 = alloca ptr, align 8
  %19 = alloca ptr, align 8
  %20 = alloca ptr, align 8
  %21 = alloca ptr, align 8
  %22 = alloca ptr, align 8
  %23 = alloca ptr, align 8
  %24 = alloca ptr, align 8
  %25 = alloca ptr, align 8
  %26 = alloca ptr, align 8
  %27 = alloca ptr, align 8
  %28 = alloca i32, align 4
  store ptr %0, ptr %15, align 8, !tbaa !56
  store i32 %1, ptr %16, align 4, !tbaa !74
  store ptr %2, ptr %17, align 8, !tbaa !22
  store ptr %3, ptr %18, align 8, !tbaa !22
  store ptr %4, ptr %19, align 8, !tbaa !22
  store ptr %5, ptr %20, align 8, !tbaa !22
  store ptr %6, ptr %21, align 8, !tbaa !22
  store ptr %7, ptr %22, align 8, !tbaa !22
  store ptr %8, ptr %23, align 8, !tbaa !22
  store ptr %9, ptr %24, align 8, !tbaa !22
  store ptr %10, ptr %25, align 8, !tbaa !22
  store ptr %11, ptr %26, align 8, !tbaa !22
  store ptr %12, ptr %27, align 8, !tbaa !22
  store i32 %13, ptr %28, align 4, !tbaa !21
  %29 = load ptr, ptr %15, align 8
  %30 = load ptr, ptr %17, align 8, !tbaa !22
  %31 = load ptr, ptr %19, align 8, !tbaa !22
  %32 = load ptr, ptr %20, align 8, !tbaa !22
  %33 = load ptr, ptr %21, align 8, !tbaa !22
  %34 = load ptr, ptr %22, align 8, !tbaa !22
  %35 = load ptr, ptr %23, align 8, !tbaa !22
  %36 = load ptr, ptr %24, align 8, !tbaa !22
  %37 = load ptr, ptr %25, align 8, !tbaa !22
  %38 = load ptr, ptr %26, align 8, !tbaa !22
  %39 = load ptr, ptr %27, align 8, !tbaa !22
  %40 = load i32, ptr %28, align 4, !tbaa !21
  %41 = load ptr, ptr %18, align 8, !tbaa !22
  call void @_ZN11OpenImageIO6v3_1_019tostring_formattingC2EPKcS3_S3_S3_S3_S3_S3_S3_S3_S3_iS3_(ptr noundef nonnull align 8 dereferenceable(113) %29, ptr noundef %30, ptr noundef %31, ptr noundef %32, ptr noundef %33, ptr noundef %34, ptr noundef %35, ptr noundef %36, ptr noundef %37, ptr noundef %38, ptr noundef %39, i32 noundef %40, ptr noundef %41)
  %42 = getelementptr inbounds nuw %"struct.OpenImageIO::v3_1_0::tostring_formatting", ptr %29, i32 0, i32 15
  store i8 0, ptr %42, align 8, !tbaa !73
  ret void
}